target datalayout = "e-m:e-p270:32:32-p271:32:32-p272:64:64-i64:64-i128:128-f80:128-n8:16:32:64-S128"
target triple = "x86_64-pc-linux-gnu"

%struct.UHashtable = type { ptr, ptr, ptr, ptr, ptr, ptr, i32, i32, i32, i32, float, float, i8, i8 }
%struct.UHashElement = type { i32, %union.UElement, %union.UElement }
%union.UElement = type { ptr }

; Function Attrs: mustprogress uwtable
define internal noundef ptr @_ZL11_uhash_findPK10UHashtable8UElementi(ptr noundef %0, ptr %1, i32 noundef %2) #0 {
  %4 = alloca ptr, align 8
  %5 = alloca %union.UElement, align 8
  %6 = alloca ptr, align 8
  %7 = alloca i32, align 4
  %8 = alloca i32, align 4
  %9 = alloca i32, align 4
  %10 = alloca i32, align 4
  %11 = alloca i32, align 4
  %12 = alloca i32, align 4
  %13 = alloca ptr, align 8
  %14 = alloca %union.UElement, align 8
  %15 = alloca %union.UElement, align 8
  %16 = alloca i32, align 4
  %17 = getelementptr inbounds nuw %union.UElement, ptr %5, i32 0, i32 0
  store ptr %1, ptr %17, align 8
  store ptr %0, ptr %6, align 8, !tbaa !11
  store i32 %2, ptr %7, align 4, !tbaa !7
  call void @llvm.lifetime.start.p0(i64 4, ptr %8) #9
  store i32 -1, ptr %8, align 4, !tbaa !7
  call void @llvm.lifetime.start.p0(i64 4, ptr %9) #9
  call void @llvm.lifetime.start.p0(i64 4, ptr %10) #9
  call void @llvm.lifetime.start.p0(i64 4, ptr %11) #9
  store i32 0, ptr %11, align 4, !tbaa !7
  call void @llvm.lifetime.start.p0(i64 4, ptr %12) #9
  call void @llvm.lifetime.start.p0(i64 8, ptr %13) #9
  %18 = load ptr, ptr %6, align 8, !tbaa !11
  %19 = getelementptr inbounds nuw %struct.UHashtable, ptr %18, i32 0, i32 0
  %20 = load ptr, ptr %19, align 8, !tbaa !25
  store ptr %20, ptr %13, align 8, !tbaa !26
  %21 = load i32, ptr %7, align 4, !tbaa !7
  %22 = and i32 %21, 2147483647
  store i32 %22, ptr %7, align 4, !tbaa !7
  %23 = load i32, ptr %7, align 4, !tbaa !7
  %24 = xor i32 %23, 67108864
  %25 = load ptr, ptr %6, align 8, !tbaa !11
  %26 = getelementptr inbounds nuw %struct.UHashtable, ptr %25, i32 0, i32 7
  %27 = load i32, ptr %26, align 4, !tbaa !31
  %28 = srem i32 %24, %27
  store i32 %28, ptr %9, align 4, !tbaa !7
  store i32 %28, ptr %10, align 4, !tbaa !7
  br label %29

29:                                               ; preds = %95, %3
  %30 = load ptr, ptr %13, align 8, !tbaa !26
  %31 = load i32, ptr %9, align 4, !tbaa !7
  %32 = sext i32 %31 to i64
  %33 = getelementptr inbounds %struct.UHashElement, ptr %30, i64 %32
  %34 = getelementptr inbounds nuw %struct.UHashElement, ptr %33, i32 0, i32 0
  %35 = load i32, ptr %34, align 8, !tbaa !32
  store i32 %35, ptr %12, align 4, !tbaa !7
  %36 = load i32, ptr %12, align 4, !tbaa !7
  %37 = load i32, ptr %7, align 4, !tbaa !7
  %38 = icmp eq i32 %36, %37
  br i1 %38, label %39, label %60

39:                                               ; preds = %29
  %40 = load ptr, ptr %6, align 8, !tbaa !11
  %41 = getelementptr inbounds nuw %struct.UHashtable, ptr %40, i32 0, i32 2
  %42 = load ptr, ptr %41, align 8, !tbaa !20
  call void @llvm.memcpy.p0.p0.i64(ptr align 8 %14, ptr align 8 %5, i64 8, i1 false), !tbaa.struct !44
  %43 = load ptr, ptr %13, align 8, !tbaa !26
  %44 = load i32, ptr %9, align 4, !tbaa !7
  %45 = sext i32 %44 to i64
  %46 = getelementptr inbounds %struct.UHashElement, ptr %43, i64 %45
  %47 = getelementptr inbounds nuw %struct.UHashElement, ptr %46, i32 0, i32 2
  call void @llvm.memcpy.p0.p0.i64(ptr align 8 %15, ptr align 8 %47, i64 8, i1 false), !tbaa.struct !44
  %48 = getelementptr inbounds nuw %union.UElement, ptr %14, i32 0, i32 0
  %49 = load ptr, ptr %48, align 8
  %50 = getelementptr inbounds nuw %union.UElement, ptr %15, i32 0, i32 0
  %51 = load ptr, ptr %50, align 8
  %52 = call noundef signext i8 %42(ptr %49, ptr %51)
  %53 = icmp ne i8 %52, 0
  br i1 %53, label %54, label %59

54:                                               ; preds = %39
  %55 = load ptr, ptr %13, align 8, !tbaa !26
  %56 = load i32, ptr %9, align 4, !tbaa !7
  %57 = sext i32 %56 to i64
  %58 = getelementptr inbounds %struct.UHashElement, ptr %55, i64 %57
  store ptr %58, ptr %4, align 8
  store i32 1, ptr %16, align 4
  br label %114

59:                                               ; preds = %39
  br label %76

60:                                               ; preds = %29
  %61 = load i32, ptr %12, align 4, !tbaa !7
  %62 = icmp slt i32 %61, 0
  br i1 %62, label %64, label %63

63:                                               ; preds = %60
  br label %75

64:                                               ; preds = %60
  %65 = load i32, ptr %12, align 4, !tbaa !7
  %66 = icmp eq i32 %65, -2147483647
  br i1 %66, label %67, label %68

67:                                               ; preds = %64
  br label %99

68:                                               ; preds = %64
  %69 = load i32, ptr %8, align 4, !tbaa !7
  %70 = icmp slt i32 %69, 0
  br i1 %70, label %71, label %73

71:                                               ; preds = %68
  %72 = load i32, ptr %9, align 4, !tbaa !7
  store i32 %72, ptr %8, align 4, !tbaa !7
  br label %73

73:                                               ; preds = %71, %68
  br label %74

74:                                               ; preds = %73
  br label %75

75:                                               ; preds = %74, %63
  br label %76

76:                                               ; preds = %75, %59
  %77 = load i32, ptr %11, align 4, !tbaa !7
  %78 = icmp eq i32 %77, 0
  br i1 %78, label %79, label %87

79:                                               ; preds = %76
  %80 = load i32, ptr %7, align 4, !tbaa !7
  %81 = load ptr, ptr %6, align 8, !tbaa !11
  %82 = getelementptr inbounds nuw %struct.UHashtable, ptr %81, i32 0, i32 7
  %83 = load i32, ptr %82, align 4, !tbaa !31
  %84 = sub nsw i32 %83, 1
  %85 = srem i32 %80, %84
  %86 = add nsw i32 %85, 1
  store i32 %86, ptr %11, align 4, !tbaa !7
  br label %87

87:                                               ; preds = %79, %76
  %88 = load i32, ptr %9, align 4, !tbaa !7
  %89 = load i32, ptr %11, align 4, !tbaa !7
  %90 = add nsw i32 %88, %89
  %91 = load ptr, ptr %6, align 8, !tbaa !11
  %92 = getelementptr inbounds nuw %struct.UHashtable, ptr %91, i32 0, i32 7
  %93 = load i32, ptr %92, align 4, !tbaa !31
  %94 = srem i32 %90, %93
  store i32 %94, ptr %9, align 4, !tbaa !7
  br label %95

95:                                               ; preds = %87
  %96 = load i32, ptr %9, align 4, !tbaa !7
  %97 = load i32, ptr %10, align 4, !tbaa !7
  %98 = icmp ne i32 %96, %97
  br i1 %98, label %29, label %99, !llvm.loop !46

99:                                               ; preds = %95, %67
  %100 = load i32, ptr %8, align 4, !tbaa !7
  %101 = icmp sge i32 %100, 0
  br i1 %101, label %102, label %104

102:                                              ; preds = %99
  %103 = load i32, ptr %8, align 4, !tbaa !7
  store i32 %103, ptr %9, align 4, !tbaa !7
  br label %109

104:                                              ; preds = %99
  %105 = load i32, ptr %12, align 4, !tbaa !7
  %106 = icmp ne i32 %105, -2147483647
  br i1 %106, label %107, label %108

107:                                              ; preds = %104
  call void @abort() #11
  unreachable

108:                                              ; preds = %104
  br label %109

109:                                              ; preds = %108, %102
  %110 = load ptr, ptr %13, align 8, !tbaa !26
  %111 = load i32, ptr %9, align 4, !tbaa !7
  %112 = sext i32 %111 to i64
  %113 = getelementptr inbounds %struct.UHashElement, ptr %110, i64 %112
  store ptr %113, ptr %4, align 8
  store i32 1, ptr %16, align 4
  br label %114

114:                                              ; preds = %109, %54
  call void @llvm.lifetime.end.p0(i64 8, ptr %13) #9
  call void @llvm.lifetime.end.p0(i64 4, ptr %12) #9
  call void @llvm.lifetime.end.p0(i64 4, ptr %11) #9
  call void @llvm.lifetime.end.p0(i64 4, ptr %10) #9
  call void @llvm.lifetime.end.p0(i64 4, ptr %9) #9
  call void @llvm.lifetime.end.p0(i64 4, ptr %8) #9
  %115 = load ptr, ptr %4, align 8
  ret ptr %115
}

; Function Attrs: mustprogress uwtable
define signext i8 @uhash_containsKey_77(ptr noundef %0, ptr noundef %1) #0 {
  %3 = alloca ptr, align 8
  %4 = alloca ptr, align 8
  %5 = alloca %union.UElement, align 8
  %6 = alloca ptr, align 8
  %7 = alloca %union.UElement, align 8
  %8 = alloca %union.UElement, align 8
  store ptr %0, ptr %3, align 8, !tbaa !11
  store ptr %1, ptr %4, align 8, !tbaa !3
  call void @llvm.lifetime.start.p0(i64 8, ptr %5) #9
  %9 = load ptr, ptr %4, align 8, !tbaa !3
  store ptr %9, ptr %5, align 8, !tbaa !27
  call void @llvm.lifetime.start.p0(i64 8, ptr %6) #9
  %10 = load ptr, ptr %3, align 8, !tbaa !11
  call void @llvm.memcpy.p0.p0.i64(ptr align 8 %7, ptr align 8 %5, i64 8, i1 false), !tbaa.struct !44
  %11 = load ptr, ptr %3, align 8, !tbaa !11
  %12 = getelementptr inbounds nuw %struct.UHashtable, ptr %11, i32 0, i32 1
  %13 = load ptr, ptr %12, align 8, !tbaa !19
  call void @llvm.memcpy.p0.p0.i64(ptr align 8 %8, ptr align 8 %5, i64 8, i1 false), !tbaa.struct !44
  %14 = getelementptr inbounds nuw %union.UElement, ptr %8, i32 0, i32 0
  %15 = load ptr, ptr %14, align 8
  %16 = call noundef i32 %13(ptr %15)
  %17 = getelementptr inbounds nuw %union.UElement, ptr %7, i32 0, i32 0
  %18 = load ptr, ptr %17, align 8
  %19 = call noundef ptr @_ZL11_uhash_findPK10UHashtable8UElementi(ptr noundef %10, ptr %18, i32 noundef %16)
  store ptr %19, ptr %6, align 8, !tbaa !26
  %20 = load ptr, ptr %6, align 8, !tbaa !26
  %21 = getelementptr inbounds nuw %struct.UHashElement, ptr %20, i32 0, i32 0
  %22 = load i32, ptr %21, align 8, !tbaa !32
  %23 = icmp slt i32 %22, 0
  %24 = xor i1 %23, true
  %25 = zext i1 %24 to i8
  call void @llvm.lifetime.end.p0(i64 8, ptr %6) #9
  call void @llvm.lifetime.end.p0(i64 8, ptr %5) #9
  ret i8 %25
}