; Function Attrs: mustprogress uwtable
define signext range(i8 0, 2) i8 @uhash_containsKey_77(ptr noundef readonly captures(none) %0, ptr noundef %1) local_unnamed_addr #0 {
  %3 = getelementptr inbounds nuw i8, ptr %0, i64 8
  %4 = load ptr, ptr %3, align 8, !tbaa !7
  %5 = tail call noundef i32 %4(ptr %1)
  %6 = load ptr, ptr %0, align 8, !tbaa !21
  %7 = and i32 %5, 2147483647
  %8 = xor i32 %7, 67108864
  %9 = getelementptr inbounds nuw i8, ptr %0, i64 52
  %10 = load i32, ptr %9, align 4, !tbaa !20
  %11 = srem i32 %8, %10
  %12 = getelementptr inbounds nuw i8, ptr %0, i64 16
  br label %13

13:                                               ; preds = %33, %2
  %.pre70.i = phi i32 [ %10, %2 ], [ %.pre.i, %33 ]
  %.036.i = phi i32 [ 0, %2 ], [ %.137.i, %33 ]
  %.033.i = phi i32 [ %11, %2 ], [ %35, %33 ]
  %.032.i = phi i32 [ -1, %2 ], [ %.1.i, %33 ]
  %14 = zext nneg i32 %.033.i to i64
  %15 = getelementptr inbounds nuw %struct.UHashElement, ptr %6, i64 %14
  %16 = load i32, ptr %15, align 8, !tbaa !22
  %17 = icmp eq i32 %16, %7
  br i1 %17, label %18, label %22

18:                                               ; preds = %13
  %19 = load ptr, ptr %12, align 8, !tbaa !13
  %20 = getelementptr inbounds nuw i8, ptr %15, i64 16
  %.sroa.0.0.copyload.i = load ptr, ptr %20, align 8, !tbaa !34
  %21 = tail call noundef signext i8 %19(ptr %1, ptr %.sroa.0.0.copyload.i)
  %.not.i = icmp eq i8 %21, 0
  br i1 %.not.i, label %._crit_edge.i, label %_ZL11_uhash_findPK10UHashtable8UElementi.exit

._crit_edge.i:                                    ; preds = %18
  %.pre.pre.i = load i32, ptr %9, align 4, !tbaa !20
  br label %27

22:                                               ; preds = %13
  %23 = icmp slt i32 %16, 0
  br i1 %23, label %24, label %27

24:                                               ; preds = %22
  %25 = icmp eq i32 %16, -2147483647
  %26 = icmp slt i32 %.032.i, 0
  %spec.select49.i = select i1 %26, i32 %.033.i, i32 %.032.i
  br i1 %25, label %.thread46.i, label %27

27:                                               ; preds = %24, %22, %._crit_edge.i
  %.pre.i = phi i32 [ %.pre.pre.i, %._crit_edge.i ], [ %.pre70.i, %22 ], [ %.pre70.i, %24 ]
  %.1.i = phi i32 [ %.032.i, %._crit_edge.i ], [ %.032.i, %22 ], [ %spec.select49.i, %24 ]
  %28 = icmp eq i32 %.036.i, 0
  br i1 %28, label %29, label %33

29:                                               ; preds = %27
  %30 = add nsw i32 %.pre.i, -1
  %31 = srem i32 %7, %30
  %32 = add nuw nsw i32 %31, 1
  br label %33

33:                                               ; preds = %29, %27
  %.137.i = phi i32 [ %32, %29 ], [ %.036.i, %27 ]
  %34 = add nuw nsw i32 %.137.i, %.033.i
  %35 = srem i32 %34, %.pre.i
  %.not41.i = icmp eq i32 %35, %11
  br i1 %.not41.i, label %36, label %13, !llvm.loop !37

36:                                               ; preds = %33
  %37 = icmp sgt i32 %.1.i, -1
  br i1 %37, label %.thread46.i, label %38

38:                                               ; preds = %36
  %.not42.i = icmp eq i32 %16, -2147483647
  br i1 %.not42.i, label %.thread46.i, label %39

39:                                               ; preds = %38
  tail call void @abort() #14
  unreachable

.thread46.i:                                      ; preds = %24, %38, %36
  %.235.i = phi i32 [ %11, %38 ], [ %.1.i, %36 ], [ %spec.select49.i, %24 ]
  %40 = zext nneg i32 %.235.i to i64
  %41 = getelementptr inbounds nuw %struct.UHashElement, ptr %6, i64 %40
  br label %_ZL11_uhash_findPK10UHashtable8UElementi.exit

_ZL11_uhash_findPK10UHashtable8UElementi.exit:    ; preds = %18, %.thread46.i
  %.0.i = phi ptr [ %41, %.thread46.i ], [ %15, %18 ]
  %42 = load i32, ptr %.0.i, align 8, !tbaa !22
  %43 = icmp sgt i32 %42, -1
  %44 = zext i1 %43 to i8
  ret i8 %44
}